target datalayout = "e-m:e-p270:32:32-p271:32:32-p272:64:64-i64:64-i128:128-f80:128-n8:16:32:64-S128"
target triple = "x86_64-unknown-linux-gnu"

%"class.arrow::compute::ExecContext" = type <{ ptr, ptr, ptr, i64, i8, i8, [6 x i8] }>

@_ZZN5arrow7compute21threaded_exec_contextEvE12threaded_ctx = internal global %"class.arrow::compute::ExecContext" zeroinitializer, align 8
@_ZGVZN5arrow7compute21threaded_exec_contextEvE12threaded_ctx = internal global i64 0, align 8
@_ZN5arrow7compute11ExecContextC1EPNS_10MemoryPoolEPNS_8internal8ExecutorEPNS0_16FunctionRegistryE = unnamed_addr alias void (ptr, ptr, ptr, ptr), ptr @_ZN5arrow7compute11ExecContextC2EPNS_10MemoryPoolEPNS_8internal8ExecutorEPNS0_16FunctionRegistryE

; Function Attrs: mustprogress uwtable
define noundef ptr @_ZN5arrow7compute21threaded_exec_contextEv() #0 personality ptr @__gxx_personality_v0 {
entry:
  %exn.slot = alloca ptr, align 8
  %ehselector.slot = alloca i32, align 4
  %0 = load atomic i8, ptr @_ZGVZN5arrow7compute21threaded_exec_contextEvE12threaded_ctx acquire, align 8
  %guard.uninitialized = icmp eq i8 %0, 0
  br i1 %guard.uninitialized, label %init.check, label %init.end, !prof !4

init.check:                                       ; preds = %entry
  %1 = call i32 @__cxa_guard_acquire(ptr @_ZGVZN5arrow7compute21threaded_exec_contextEvE12threaded_ctx) #1
  %tobool = icmp ne i32 %1, 0
  br i1 %tobool, label %init, label %init.end

init:                                             ; preds = %init.check
  %call = invoke noundef ptr @_ZN5arrow19default_memory_poolEv()
          to label %invoke.cont unwind label %lpad

invoke.cont:                                      ; preds = %init
  %call2 = invoke noundef ptr @_ZN5arrow8internal16GetCpuThreadPoolEv()
          to label %invoke.cont1 unwind label %lpad

invoke.cont1:                                     ; preds = %invoke.cont
  invoke void @_ZN5arrow7compute11ExecContextC1EPNS_10MemoryPoolEPNS_8internal8ExecutorEPNS0_16FunctionRegistryE(ptr noundef nonnull align 8 dereferenceable(34) @_ZZN5arrow7compute21threaded_exec_contextEvE12threaded_ctx, ptr noundef %call, ptr noundef %call2, ptr noundef null)
          to label %invoke.cont3 unwind label %lpad

invoke.cont3:                                     ; preds = %invoke.cont1
  call void @__cxa_guard_release(ptr @_ZGVZN5arrow7compute21threaded_exec_contextEvE12threaded_ctx) #1
  br label %init.end

init.end:                                         ; preds = %invoke.cont3, %init.check, %entry
  ret ptr @_ZZN5arrow7compute21threaded_exec_contextEvE12threaded_ctx

lpad:                                             ; preds = %invoke.cont1, %invoke.cont, %init
  %2 = landingpad { ptr, i32 }
          cleanup
  %3 = extractvalue { ptr, i32 } %2, 0
  store ptr %3, ptr %exn.slot, align 8
  %4 = extractvalue { ptr, i32 } %2, 1
  store i32 %4, ptr %ehselector.slot, align 4
  call void @__cxa_guard_abort(ptr @_ZGVZN5arrow7compute21threaded_exec_contextEvE12threaded_ctx) #1
  br label %eh.resume

eh.resume:                                        ; preds = %lpad
  %exn = load ptr, ptr %exn.slot, align 8
  %sel = load i32, ptr %ehselector.slot, align 4
  %lpad.val = insertvalue { ptr, i32 } poison, ptr %exn, 0
  %lpad.val4 = insertvalue { ptr, i32 } %lpad.val, i32 %sel, 1
  resume { ptr, i32 } %lpad.val4
}