; Function Attrs: mustprogress uwtable
define noundef ptr @_ZN5arrow7compute21threaded_exec_contextEv() local_unnamed_addr #0 personality ptr @__gxx_personality_v0 {
entry:
  %0 = load atomic i8, ptr @_ZGVZN5arrow7compute21threaded_exec_contextEvE12threaded_ctx acquire, align 8
  %guard.uninitialized = icmp eq i8 %0, 0
  br i1 %guard.uninitialized, label %init.check, label %init.end, !prof !4

init.check:                                       ; preds = %entry
  %1 = tail call i32 @__cxa_guard_acquire(ptr nonnull @_ZGVZN5arrow7compute21threaded_exec_contextEvE12threaded_ctx) #22
  %tobool.not = icmp eq i32 %1, 0
  br i1 %tobool.not, label %init.end, label %init

init:                                             ; preds = %init.check
  %call = invoke noundef ptr @_ZN5arrow19default_memory_poolEv()
          to label %invoke.cont unwind label %lpad

invoke.cont:                                      ; preds = %init
  %call2 = invoke noundef ptr @_ZN5arrow8internal16GetCpuThreadPoolEv()
          to label %invoke.cont1 unwind label %lpad

invoke.cont1:                                     ; preds = %invoke.cont
  invoke void @_ZN5arrow7compute11ExecContextC1EPNS_10MemoryPoolEPNS_8internal8ExecutorEPNS0_16FunctionRegistryE(ptr noundef nonnull align 8 dereferenceable(34) @_ZZN5arrow7compute21threaded_exec_contextEvE12threaded_ctx, ptr noundef %call, ptr noundef %call2, ptr noundef null)
          to label %invoke.cont3 unwind label %lpad

invoke.cont3:                                     ; preds = %invoke.cont1
  tail call void @__cxa_guard_release(ptr nonnull @_ZGVZN5arrow7compute21threaded_exec_contextEvE12threaded_ctx) #22
  br label %init.end

init.end:                                         ; preds = %invoke.cont3, %init.check, %entry
  ret ptr @_ZZN5arrow7compute21threaded_exec_contextEvE12threaded_ctx

lpad:                                             ; preds = %invoke.cont1, %invoke.cont, %init
  %2 = landingpad { ptr, i32 }
          cleanup
  tail call void @__cxa_guard_abort(ptr nonnull @_ZGVZN5arrow7compute21threaded_exec_contextEvE12threaded_ctx) #22
  resume { ptr, i32 } %2
}